target datalayout = "e-m:e-p270:32:32-p271:32:32-p272:64:64-i64:64-i128:128-f80:128-n8:16:32:64-S128"
target triple = "x86_64-pc-linux-gnu"

%class.Moves = type { i32, i32, i32, i32, i32, i32, i32, i32, i32, [13 x %"struct.Moves::trackType"], ptr, [13 x [4 x %struct.movePlyType]], ptr, [13 x [4 x i32]], [13 x %"class.std::__cxx11::basic_string"], [13 x [4 x %"struct.Moves::moveStatType"]], [13 x [4 x %"struct.Moves::moveStatType"]], [13 x [4 x %"struct.Moves::moveStatsType"]], [13 x [4 x %"struct.Moves::moveStatsType"]], %"struct.Moves::moveStatsType", %"struct.Moves::moveStatsType", [16 x { i64, i64 }] }
%"struct.Moves::trackType" = type { i32, i32, [4 x i32], [4 x i32], %struct.trickDataType, [4 x %struct.extCard], [4 x i32], [4 x [4 x i32]], [4 x i32] }
%struct.trickDataType = type { [4 x i32], i32, i32, i32, i32, i32 }
%struct.extCard = type { i32, i32, i32 }
%struct.movePlyType = type { [14 x %struct.moveType], i32, i32 }
%struct.moveType = type { i32, i32, i32, i32 }
%"class.std::__cxx11::basic_string" = type { %"struct.std::__cxx11::basic_string<char>::_Alloc_hider", i64, %union.anon }
%"struct.std::__cxx11::basic_string<char>::_Alloc_hider" = type { ptr }
%union.anon = type { i64, [8 x i8] }
%"struct.Moves::moveStatType" = type { i32, i32, i32, i32 }
%"struct.Moves::moveStatsType" = type { i32, [13 x %"struct.Moves::moveStatType"] }

; Function Attrs: mustprogress nounwind uwtable
define void @_ZN5Moves5PurgeEiiPK8moveType(ptr noundef nonnull align 8 dereferenceable(39992) %0, i32 noundef %1, i32 noundef %2, ptr noundef %3) #5 align 2 {
  %5 = alloca ptr, align 8
  %6 = alloca i32, align 4
  %7 = alloca i32, align 4
  %8 = alloca ptr, align 8
  %9 = alloca ptr, align 8
  %10 = alloca i32, align 4
  %11 = alloca i32, align 4
  %12 = alloca i32, align 4
  %13 = alloca i32, align 4
  %14 = alloca i32, align 4
  store ptr %0, ptr %5, align 8
  store i32 %1, ptr %6, align 4
  store i32 %2, ptr %7, align 4
  store ptr %3, ptr %8, align 8
  %15 = load ptr, ptr %5, align 8
  %16 = getelementptr inbounds nuw %class.Moves, ptr %15, i32 0, i32 11
  %17 = load i32, ptr %6, align 4
  %18 = sext i32 %17 to i64
  %19 = getelementptr inbounds [13 x [4 x %struct.movePlyType]], ptr %16, i64 0, i64 %18
  %20 = load i32, ptr %7, align 4
  %21 = sext i32 %20 to i64
  %22 = getelementptr inbounds [4 x %struct.movePlyType], ptr %19, i64 0, i64 %21
  store ptr %22, ptr %9, align 8
  store i32 1, ptr %10, align 4
  br label %23

23:                                               ; preds = %102, %4
  %24 = load i32, ptr %10, align 4
  %25 = icmp sle i32 %24, 13
  br i1 %25, label %26, label %105

26:                                               ; preds = %23
  %27 = load ptr, ptr %8, align 8
  %28 = load i32, ptr %10, align 4
  %29 = sext i32 %28 to i64
  %30 = getelementptr inbounds %struct.moveType, ptr %27, i64 %29
  %31 = getelementptr inbounds nuw %struct.moveType, ptr %30, i32 0, i32 0
  %32 = load i32, ptr %31, align 4
  store i32 %32, ptr %11, align 4
  %33 = load ptr, ptr %8, align 8
  %34 = load i32, ptr %10, align 4
  %35 = sext i32 %34 to i64
  %36 = getelementptr inbounds %struct.moveType, ptr %33, i64 %35
  %37 = getelementptr inbounds nuw %struct.moveType, ptr %36, i32 0, i32 1
  %38 = load i32, ptr %37, align 4
  store i32 %38, ptr %12, align 4
  %39 = load i32, ptr %12, align 4
  %40 = icmp eq i32 %39, 0
  br i1 %40, label %41, label %42

41:                                               ; preds = %26
  br label %102

42:                                               ; preds = %26
  store i32 0, ptr %13, align 4
  br label %43

43:                                               ; preds = %98, %42
  %44 = load i32, ptr %13, align 4
  %45 = load ptr, ptr %9, align 8
  %46 = getelementptr inbounds nuw %struct.movePlyType, ptr %45, i32 0, i32 2
  %47 = load i32, ptr %46, align 4
  %48 = icmp sle i32 %44, %47
  br i1 %48, label %49, label %101

49:                                               ; preds = %43
  %50 = load i32, ptr %11, align 4
  %51 = load ptr, ptr %9, align 8
  %52 = getelementptr inbounds nuw %struct.movePlyType, ptr %51, i32 0, i32 0
  %53 = load i32, ptr %13, align 4
  %54 = sext i32 %53 to i64
  %55 = getelementptr inbounds [14 x %struct.moveType], ptr %52, i64 0, i64 %54
  %56 = getelementptr inbounds nuw %struct.moveType, ptr %55, i32 0, i32 0
  %57 = load i32, ptr %56, align 4
  %58 = icmp eq i32 %50, %57
  br i1 %58, label %59, label %97

59:                                               ; preds = %49
  %60 = load i32, ptr %12, align 4
  %61 = load ptr, ptr %9, align 8
  %62 = getelementptr inbounds nuw %struct.movePlyType, ptr %61, i32 0, i32 0
  %63 = load i32, ptr %13, align 4
  %64 = sext i32 %63 to i64
  %65 = getelementptr inbounds [14 x %struct.moveType], ptr %62, i64 0, i64 %64
  %66 = getelementptr inbounds nuw %struct.moveType, ptr %65, i32 0, i32 1
  %67 = load i32, ptr %66, align 4
  %68 = icmp eq i32 %60, %67
  br i1 %68, label %69, label %97

69:                                               ; preds = %59
  %70 = load i32, ptr %13, align 4
  store i32 %70, ptr %14, align 4
  br label %71

71:                                               ; preds = %89, %69
  %72 = load i32, ptr %14, align 4
  %73 = load ptr, ptr %9, align 8
  %74 = getelementptr inbounds nuw %struct.movePlyType, ptr %73, i32 0, i32 2
  %75 = load i32, ptr %74, align 4
  %76 = icmp sle i32 %72, %75
  br i1 %76, label %77, label %92

77:                                               ; preds = %71
  %78 = load ptr, ptr %9, align 8
  %79 = getelementptr inbounds nuw %struct.movePlyType, ptr %78, i32 0, i32 0
  %80 = load i32, ptr %14, align 4
  %81 = add nsw i32 %80, 1
  %82 = sext i32 %81 to i64
  %83 = getelementptr inbounds [14 x %struct.moveType], ptr %79, i64 0, i64 %82
  %84 = load ptr, ptr %9, align 8
  %85 = getelementptr inbounds nuw %struct.movePlyType, ptr %84, i32 0, i32 0
  %86 = load i32, ptr %14, align 4
  %87 = sext i32 %86 to i64
  %88 = getelementptr inbounds [14 x %struct.moveType], ptr %85, i64 0, i64 %87
  call void @llvm.memcpy.p0.p0.i64(ptr align 4 %88, ptr align 4 %83, i64 16, i1 false)
  br label %89

89:                                               ; preds = %77
  %90 = load i32, ptr %14, align 4
  %91 = add nsw i32 %90, 1
  store i32 %91, ptr %14, align 4
  br label %71, !llvm.loop !81

92:                                               ; preds = %71
  %93 = load ptr, ptr %9, align 8
  %94 = getelementptr inbounds nuw %struct.movePlyType, ptr %93, i32 0, i32 2
  %95 = load i32, ptr %94, align 4
  %96 = add nsw i32 %95, -1
  store i32 %96, ptr %94, align 4
  br label %97

97:                                               ; preds = %92, %59, %49
  br label %98

98:                                               ; preds = %97
  %99 = load i32, ptr %13, align 4
  %100 = add nsw i32 %99, 1
  store i32 %100, ptr %13, align 4
  br label %43, !llvm.loop !82

101:                                              ; preds = %43
  br label %102

102:                                              ; preds = %101, %41
  %103 = load i32, ptr %10, align 4
  %104 = add nsw i32 %103, 1
  store i32 %104, ptr %10, align 4
  br label %23, !llvm.loop !83

105:                                              ; preds = %23
  ret void
}