; Function Attrs: mustprogress nofree norecurse nosync nounwind memory(argmem: readwrite) uwtable
define void @_ZN5Moves5PurgeEiiPK8moveType(ptr nocapture noundef nonnull align 8 dereferenceable(39992) %0, i32 noundef %1, i32 noundef %2, ptr nocapture noundef readonly %3) local_unnamed_addr #13 align 2 {
  %5 = getelementptr inbounds nuw i8, ptr %0, i64 2904
  %6 = sext i32 %1 to i64
  %7 = sext i32 %2 to i64
  %8 = getelementptr inbounds [13 x [4 x %struct.movePlyType]], ptr %5, i64 0, i64 %6, i64 %7
  %9 = getelementptr inbounds nuw i8, ptr %8, i64 228
  br label %10

10:                                               ; preds = %4, %.loopexit
  %indvars.iv45 = phi i64 [ 1, %4 ], [ %indvars.iv.next46, %.loopexit ]
  %11 = getelementptr inbounds %struct.moveType, ptr %3, i64 %indvars.iv45
  %12 = load i32, ptr %11, align 4
  %13 = getelementptr inbounds nuw i8, ptr %11, i64 4
  %14 = load i32, ptr %13, align 4
  %15 = icmp eq i32 %14, 0
  br i1 %15, label %.loopexit, label %.preheader32

.preheader32:                                     ; preds = %10
  %16 = load i32, ptr %9, align 4
  %.not35 = icmp slt i32 %16, 0
  br i1 %.not35, label %.loopexit, label %.lr.ph38

.lr.ph38:                                         ; preds = %.preheader32, %31
  %17 = phi i32 [ %32, %31 ], [ %16, %.preheader32 ]
  %indvars.iv = phi i64 [ %indvars.iv.next, %31 ], [ 0, %.preheader32 ]
  %18 = getelementptr inbounds [14 x %struct.moveType], ptr %8, i64 0, i64 %indvars.iv
  %19 = load i32, ptr %18, align 8
  %20 = icmp eq i32 %12, %19
  br i1 %20, label %21, label %31

21:                                               ; preds = %.lr.ph38
  %22 = getelementptr inbounds nuw i8, ptr %18, i64 4
  %23 = load i32, ptr %22, align 4
  %24 = icmp eq i32 %14, %23
  br i1 %24, label %.preheader, label %31

.preheader:                                       ; preds = %21
  %25 = sext i32 %17 to i64
  %.not3133 = icmp sgt i64 %indvars.iv, %25
  br i1 %.not3133, label %._crit_edge, label %.lr.ph

.lr.ph:                                           ; preds = %.preheader, %.lr.ph
  %indvars.iv41 = phi i64 [ %indvars.iv.next42, %.lr.ph ], [ %indvars.iv, %.preheader ]
  %indvars.iv.next42 = add nuw nsw i64 %indvars.iv41, 1
  %26 = getelementptr inbounds [14 x %struct.moveType], ptr %8, i64 0, i64 %indvars.iv.next42
  %27 = getelementptr inbounds [14 x %struct.moveType], ptr %8, i64 0, i64 %indvars.iv41
  tail call void @llvm.memcpy.p0.p0.i64(ptr noundef nonnull align 8 dereferenceable(16) %27, ptr noundef nonnull align 8 dereferenceable(16) %26, i64 16, i1 false)
  %28 = load i32, ptr %9, align 4
  %29 = sext i32 %28 to i64
  %.not31.not = icmp slt i64 %indvars.iv41, %29
  br i1 %.not31.not, label %.lr.ph, label %._crit_edge, !llvm.loop !81

._crit_edge:                                      ; preds = %.lr.ph, %.preheader
  %.lcssa = phi i32 [ %17, %.preheader ], [ %28, %.lr.ph ]
  %30 = add nsw i32 %.lcssa, -1
  store i32 %30, ptr %9, align 4
  br label %31

31:                                               ; preds = %.lr.ph38, %21, %._crit_edge
  %32 = phi i32 [ %17, %.lr.ph38 ], [ %17, %21 ], [ %30, %._crit_edge ]
  %indvars.iv.next = add nuw nsw i64 %indvars.iv, 1
  %33 = sext i32 %32 to i64
  %.not.not = icmp slt i64 %indvars.iv, %33
  br i1 %.not.not, label %.lr.ph38, label %.loopexit, !llvm.loop !82

.loopexit:                                        ; preds = %31, %.preheader32, %10
  %indvars.iv.next46 = add nuw nsw i64 %indvars.iv45, 1
  %exitcond.not = icmp eq i64 %indvars.iv.next46, 14
  br i1 %exitcond.not, label %34, label %10, !llvm.loop !83

34:                                               ; preds = %.loopexit
  ret void
}